; Function Attrs: mustprogress uwtable
define hidden void @_ZN6Assimp4Ogre20OgreBinarySerializer29ReadGeometryVertexDeclarationEPNS0_10VertexDataE(ptr nocapture noundef nonnull align 8 dereferenceable(20) %this, ptr nocapture noundef %dest) local_unnamed_addr #2 align 2 personality ptr @__gxx_personality_v0 {
entry:
  %m_reader.i = getelementptr inbounds i8, ptr %this, i64 8
  %0 = load ptr, ptr %m_reader.i, align 8
  %mEnd.i.i = getelementptr inbounds i8, ptr %0, i64 32
  %1 = load ptr, ptr %mEnd.i.i, align 8
  %mCurrent.i.i = getelementptr inbounds i8, ptr %0, i64 24
  %2 = load ptr, ptr %mCurrent.i.i, align 8
  %sub.ptr.lhs.cast.i.i = ptrtoint ptr %1 to i64
  %sub.ptr.rhs.cast.i.i = ptrtoint ptr %2 to i64
  %sub.ptr.sub.i.i = sub i64 %sub.ptr.lhs.cast.i.i, %sub.ptr.rhs.cast.i.i
  %conv2.i.i = and i64 %sub.ptr.sub.i.i, 4294967295
  %cmp.i = icmp eq i64 %conv2.i.i, 0
  br i1 %cmp.i, label %if.end10, label %if.then

if.then:                                          ; preds = %entry
  %call2 = tail call noundef zeroext i16 @_ZN6Assimp4Ogre20OgreBinarySerializer10ReadHeaderEb(ptr noundef nonnull align 8 dereferenceable(20) %this, i1 noundef zeroext true)
  %3 = load ptr, ptr %m_reader.i, align 8
  %mEnd.i.i229 = getelementptr inbounds i8, ptr %3, i64 32
  %4 = load ptr, ptr %mEnd.i.i229, align 8
  %mCurrent.i.i330 = getelementptr inbounds i8, ptr %3, i64 24
  %5 = load ptr, ptr %mCurrent.i.i330, align 8
  %sub.ptr.lhs.cast.i.i431 = ptrtoint ptr %4 to i64
  %sub.ptr.rhs.cast.i.i532 = ptrtoint ptr %5 to i64
  %sub.ptr.sub.i.i633 = sub i64 %sub.ptr.lhs.cast.i.i431, %sub.ptr.rhs.cast.i.i532
  %conv2.i.i734 = and i64 %sub.ptr.sub.i.i633, 4294967295
  %cmp.i835 = icmp eq i64 %conv2.i.i734, 0
  %cmp36 = icmp ne i16 %call2, 20752
  %.not37 = or i1 %cmp36, %cmp.i835
  br i1 %.not37, label %while.end, label %while.body

while.body:                                       ; preds = %if.then, %if.end
  tail call void @_ZN6Assimp4Ogre20OgreBinarySerializer25ReadGeometryVertexElementEPNS0_10VertexDataE(ptr noundef nonnull align 8 dereferenceable(20) %this, ptr noundef %dest)
  %6 = load ptr, ptr %m_reader.i, align 8
  %mEnd.i.i10 = getelementptr inbounds i8, ptr %6, i64 32
  %7 = load ptr, ptr %mEnd.i.i10, align 8
  %mCurrent.i.i11 = getelementptr inbounds i8, ptr %6, i64 24
  %8 = load ptr, ptr %mCurrent.i.i11, align 8
  %sub.ptr.lhs.cast.i.i12 = ptrtoint ptr %7 to i64
  %sub.ptr.rhs.cast.i.i13 = ptrtoint ptr %8 to i64
  %sub.ptr.sub.i.i14 = sub i64 %sub.ptr.lhs.cast.i.i12, %sub.ptr.rhs.cast.i.i13
  %conv2.i.i15 = and i64 %sub.ptr.sub.i.i14, 4294967295
  %cmp.i16 = icmp eq i64 %conv2.i.i15, 0
  br i1 %cmp.i16, label %if.end10, label %if.end

if.end:                                           ; preds = %while.body
  %call6 = tail call noundef zeroext i16 @_ZN6Assimp4Ogre20OgreBinarySerializer10ReadHeaderEb(ptr noundef nonnull align 8 dereferenceable(20) %this, i1 noundef zeroext true)
  %.pre = load ptr, ptr %m_reader.i, align 8
  %mEnd.i.i2.phi.trans.insert = getelementptr inbounds i8, ptr %.pre, i64 32
  %.pre44 = load ptr, ptr %mEnd.i.i2.phi.trans.insert, align 8
  %mCurrent.i.i3.phi.trans.insert = getelementptr inbounds i8, ptr %.pre, i64 24
  %.pre45 = load ptr, ptr %mCurrent.i.i3.phi.trans.insert, align 8
  %.pre46 = ptrtoint ptr %.pre44 to i64
  %.pre47 = ptrtoint ptr %.pre45 to i64
  %.pre48 = sub i64 %.pre46, %.pre47
  %.pre49 = and i64 %.pre48, 4294967295
  %cmp.i8 = icmp eq i64 %.pre49, 0
  %cmp = icmp ne i16 %call6, 20752
  %.not = or i1 %cmp, %cmp.i8
  br i1 %.not, label %while.end, label %while.body, !llvm.loop !21

while.end:                                        ; preds = %if.end, %if.then
  %.lcssa28 = phi ptr [ %3, %if.then ], [ %.pre, %if.end ]
  %.lcssa = phi ptr [ %5, %if.then ], [ %.pre45, %if.end ]
  %cmp.i8.lcssa = phi i1 [ %cmp.i835, %if.then ], [ %cmp.i8, %if.end ]
  br i1 %cmp.i8.lcssa, label %if.end10, label %if.then8

if.then8:                                         ; preds = %while.end
  %mCurrent.i.i3.le = getelementptr inbounds i8, ptr %.lcssa28, i64 24
  %add.ptr.i.i = getelementptr inbounds i8, ptr %.lcssa, i64 -6
  store ptr %add.ptr.i.i, ptr %mCurrent.i.i3.le, align 8
  %mLimit.i.i = getelementptr inbounds i8, ptr %.lcssa28, i64 40
  %9 = load ptr, ptr %mLimit.i.i, align 8
  %cmp.i.i = icmp ugt ptr %add.ptr.i.i, %9
  br i1 %cmp.i.i, label %if.then.i.i, label %if.end10

if.then.i.i:                                      ; preds = %if.then8
  %exception.i.i = tail call ptr @__cxa_allocate_exception(i64 16) #19
  invoke void @_ZN17DeadlyImportErrorC2EPKc(ptr noundef nonnull align 8 dereferenceable(16) %exception.i.i, ptr noundef nonnull @.str.68)
          to label %invoke.cont.i.i unwind label %lpad.i.i

invoke.cont.i.i:                                  ; preds = %if.then.i.i
  tail call void @__cxa_throw(ptr nonnull %exception.i.i, ptr nonnull @_ZTI17DeadlyImportError, ptr nonnull @_ZN17DeadlyImportErrorD2Ev) #20
  unreachable

lpad.i.i:                                         ; preds = %if.then.i.i
  %10 = landingpad { ptr, i32 }
          cleanup
  tail call void @__cxa_free_exception(ptr %exception.i.i) #19
  resume { ptr, i32 } %10

if.end10:                                         ; preds = %while.body, %if.then8, %while.end, %entry
  ret void
}